; Function Attrs: mustprogress uwtable
define void @_ZN3gmx19GaussianOn1DLatticeC2ERKS0_(ptr noundef nonnull writeonly align 8 captures(none) dereferenceable(8) %0, ptr noundef nonnull readonly align 8 captures(none) dereferenceable(8) %1) unnamed_addr #0 align 2 personality ptr @__gxx_personality_v0 {
  %3 = tail call noalias noundef nonnull dereferenceable(64) ptr @_Znwm(i64 noundef 64) #21
  %4 = load ptr, ptr %1, align 8, !tbaa !28
  invoke void @_ZN3gmx19GaussianOn1DLattice4ImplC2ERKS1_(ptr noundef nonnull align 8 dereferenceable(64) %3, ptr noundef nonnull align 8 dereferenceable(64) %4)
          to label %5 unwind label %6

5:                                                ; preds = %2
  store ptr %3, ptr %0, align 8, !tbaa !28
  ret void

6:                                                ; preds = %2
  %7 = landingpad { ptr, i32 }
          cleanup
  tail call void @_ZdlPvm(ptr noundef nonnull %3, i64 noundef 64) #23
  resume { ptr, i32 } %7
}